target datalayout = "e-m:e-p270:32:32-p271:32:32-p272:64:64-i64:64-i128:128-f80:128-n8:16:32:64-S128"
target triple = "x86_64-pc-linux-gnu"

%struct.strvec = type { ptr, i64, i64 }
%struct.strbuf = type { i64, i64, ptr }
%struct.am_state = type { ptr, i32, i32, ptr, ptr, ptr, ptr, i64, %struct.object_id, i32, i32, i32, i32, i32, i32, i32, i32, i32, i32, i32, i32, %struct.strvec, ptr, i32, i32, i32, ptr, i32 }
%struct.object_id = type { [32 x i8], i32 }

@.str.72 = private unnamed_addr constant [1 x i8] zeroinitializer, align 1
@the_repository = external global ptr, align 8
@.str.83 = private unnamed_addr constant [6 x i8] c"%s/%s\00", align 1
@.str.85 = private unnamed_addr constant [13 x i8] c"builtin/am.c\00", align 1
@git_gettext_enabled = external global i32, align 4
@.str.183 = private unnamed_addr constant [3 x i8] c"%s\00", align 1
@.str.188 = private unnamed_addr constant [6 x i8] c"patch\00", align 1
@.str.223 = private unnamed_addr constant [10 x i8] c"git am -i\00", align 1
@.str.224 = private unnamed_addr constant [7 x i8] c"git am\00", align 1
@__const.die_user_resolve.sb = private unnamed_addr constant %struct.strbuf { i64 0, i64 0, ptr @strbuf_slopbuf }, align 8
@.str.225 = private unnamed_addr constant [59 x i8] c"When you have resolved this problem, run \22%s --continue\22.\0A\00", align 1
@.str.226 = private unnamed_addr constant [60 x i8] c"If you prefer to skip this patch, run \22%s --skip\22 instead.\0A\00", align 1
@.str.227 = private unnamed_addr constant [71 x i8] c"To record the empty patch as an empty commit, run \22%s --allow-empty\22.\0A\00", align 1
@.str.228 = private unnamed_addr constant [68 x i8] c"To restore the original branch and stop patching, run \22%s --abort\22.\00", align 1

; Function Attrs: inlinehint nounwind uwtable
define internal ptr @am_path(ptr noundef %0, ptr noundef %1) #5 {
  %3 = alloca ptr, align 8
  %4 = alloca ptr, align 8
  store ptr %0, ptr %3, align 8, !tbaa !47
  store ptr %1, ptr %4, align 8, !tbaa !11
  %5 = load ptr, ptr %3, align 8, !tbaa !47
  %6 = getelementptr inbounds nuw %struct.am_state, ptr %5, i32 0, i32 0
  %7 = load ptr, ptr %6, align 8, !tbaa !31
  %8 = load ptr, ptr %4, align 8, !tbaa !11
  %9 = call ptr (ptr, ...) @mkpath(ptr noundef @.str.83, ptr noundef %7, ptr noundef %8)
  ret ptr %9
}

; Function Attrs: inlinehint nounwind uwtable
define internal ptr @_(ptr noundef %0) #5 {
  %2 = alloca ptr, align 8
  %3 = alloca ptr, align 8
  store ptr %0, ptr %3, align 8, !tbaa !11
  %4 = load ptr, ptr %3, align 8, !tbaa !11
  %5 = load i8, ptr %4, align 1, !tbaa !84
  %6 = icmp ne i8 %5, 0
  br i1 %6, label %8, label %7

7:                                                ; preds = %1
  store ptr @.str.72, ptr %2, align 8
  br label %16

8:                                                ; preds = %1
  %9 = load i32, ptr @git_gettext_enabled, align 4, !tbaa !4
  %10 = icmp ne i32 %9, 0
  br i1 %10, label %13, label %11

11:                                               ; preds = %8
  %12 = load ptr, ptr %3, align 8, !tbaa !11
  store ptr %12, ptr %2, align 8
  br label %16

13:                                               ; preds = %8
  %14 = load ptr, ptr %3, align 8, !tbaa !11
  %15 = call ptr @dcgettext(ptr noundef null, ptr noundef %14, i32 noundef 5) #14
  store ptr %15, ptr %2, align 8
  br label %16

16:                                               ; preds = %13, %11, %7
  %17 = load ptr, ptr %2, align 8
  ret ptr %17
}

; Function Attrs: noreturn nounwind uwtable
define internal void @die_user_resolve(ptr noundef %0) #13 {
  %2 = alloca ptr, align 8
  %3 = alloca ptr, align 8
  %4 = alloca %struct.strbuf, align 8
  store ptr %0, ptr %2, align 8, !tbaa !47
  %5 = load ptr, ptr %2, align 8, !tbaa !47
  %6 = getelementptr inbounds nuw %struct.am_state, ptr %5, i32 0, i32 22
  %7 = load ptr, ptr %6, align 8, !tbaa !131
  %8 = icmp ne ptr %7, null
  br i1 %8, label %9, label %13

9:                                                ; preds = %1
  %10 = load ptr, ptr %2, align 8, !tbaa !47
  %11 = getelementptr inbounds nuw %struct.am_state, ptr %10, i32 0, i32 22
  %12 = load ptr, ptr %11, align 8, !tbaa !131
  call void (i32, ptr, ...) @advise_if_enabled(i32 noundef 15, ptr noundef @.str.183, ptr noundef %12)
  br label %42

13:                                               ; preds = %1
  call void @llvm.lifetime.start.p0(i64 8, ptr %3) #14
  %14 = load ptr, ptr %2, align 8, !tbaa !47
  %15 = getelementptr inbounds nuw %struct.am_state, ptr %14, i32 0, i32 10
  %16 = load i32, ptr %15, align 8, !tbaa !39
  %17 = icmp ne i32 %16, 0
  %18 = select i1 %17, ptr @.str.223, ptr @.str.224
  store ptr %18, ptr %3, align 8, !tbaa !11
  call void @llvm.lifetime.start.p0(i64 24, ptr %4) #14
  call void @llvm.memcpy.p0.p0.i64(ptr align 8 %4, ptr align 8 @__const.die_user_resolve.sb, i64 24, i1 false)
  %19 = call ptr @_(ptr noundef @.str.225)
  %20 = load ptr, ptr %3, align 8, !tbaa !11
  call void (ptr, ptr, ...) @strbuf_addf(ptr noundef %4, ptr noundef %19, ptr noundef %20)
  %21 = call ptr @_(ptr noundef @.str.226)
  %22 = load ptr, ptr %3, align 8, !tbaa !11
  call void (ptr, ptr, ...) @strbuf_addf(ptr noundef %4, ptr noundef %21, ptr noundef %22)
  %23 = call i32 @advice_enabled(i32 noundef 4)
  %24 = icmp ne i32 %23, 0
  br i1 %24, label %25, label %37

25:                                               ; preds = %13
  %26 = load ptr, ptr %2, align 8, !tbaa !47
  %27 = call ptr @am_path(ptr noundef %26, ptr noundef @.str.188)
  %28 = call i32 @is_empty_or_missing_file(ptr noundef %27)
  %29 = icmp ne i32 %28, 0
  br i1 %29, label %30, label %37

30:                                               ; preds = %25
  %31 = load ptr, ptr @the_repository, align 8, !tbaa !13
  %32 = call i32 @repo_index_has_changes(ptr noundef %31, ptr noundef null, ptr noundef null)
  %33 = icmp ne i32 %32, 0
  br i1 %33, label %37, label %34

34:                                               ; preds = %30
  %35 = call ptr @_(ptr noundef @.str.227)
  %36 = load ptr, ptr %3, align 8, !tbaa !11
  call void (ptr, ptr, ...) @strbuf_addf(ptr noundef %4, ptr noundef %35, ptr noundef %36)
  br label %37

37:                                               ; preds = %34, %30, %25, %13
  %38 = call ptr @_(ptr noundef @.str.228)
  %39 = load ptr, ptr %3, align 8, !tbaa !11
  call void (ptr, ptr, ...) @strbuf_addf(ptr noundef %4, ptr noundef %38, ptr noundef %39)
  %40 = getelementptr inbounds nuw %struct.strbuf, ptr %4, i32 0, i32 2
  %41 = load ptr, ptr %40, align 8, !tbaa !57
  call void (i32, ptr, ...) @advise_if_enabled(i32 noundef 15, ptr noundef @.str.183, ptr noundef %41)
  call void @strbuf_release(ptr noundef %4)
  call void @llvm.lifetime.end.p0(i64 24, ptr %4) #14
  call void @llvm.lifetime.end.p0(i64 8, ptr %3) #14
  br label %42

42:                                               ; preds = %37, %9
  %43 = call i32 @common_exit(ptr noundef @.str.85, i32 noundef 1179, i32 noundef 128)
  call void @exit(i32 noundef %43) #17
  unreachable
}