; Function Attrs: noreturn nounwind uwtable
define internal fastcc void @die_user_resolve(ptr noundef nonnull readonly captures(none) %0) unnamed_addr #17 {
  %2 = alloca %struct.strbuf, align 8
  %3 = getelementptr inbounds nuw i8, ptr %0, i64 168
  %4 = load ptr, ptr %3, align 8, !tbaa !174
  %.not = icmp eq ptr %4, null
  br i1 %.not, label %6, label %5

5:                                                ; preds = %1
  tail call void (i32, ptr, ...) @advise_if_enabled(i32 noundef 15, ptr noundef nonnull @.str.183, ptr noundef nonnull %4) #21
  br label %33

6:                                                ; preds = %1
  %7 = getelementptr inbounds nuw i8, ptr %0, i64 96
  %8 = load i32, ptr %7, align 8, !tbaa !48
  %.not8 = icmp eq i32 %8, 0
  %9 = select i1 %.not8, ptr @.str.224, ptr @.str.223
  call void @llvm.lifetime.start.p0(i64 24, ptr nonnull %2) #21
  call void @llvm.memcpy.p0.p0.i64(ptr noundef nonnull align 8 dereferenceable(24) %2, ptr noundef nonnull align 8 dereferenceable(24) @__const.show_patch.sb, i64 24, i1 false)
  %10 = load i32, ptr @git_gettext_enabled, align 4, !tbaa !4
  %.not4.i = icmp eq i32 %10, 0
  br i1 %.not4.i, label %_.exit, label %11

11:                                               ; preds = %6
  %12 = tail call ptr @dcgettext(ptr noundef null, ptr noundef nonnull @.str.225, i32 noundef 5) #21
  br label %_.exit

_.exit:                                           ; preds = %6, %11
  %.0.i = phi ptr [ %12, %11 ], [ @.str.225, %6 ]
  call void (ptr, ptr, ...) @strbuf_addf(ptr noundef nonnull %2, ptr noundef %.0.i, ptr noundef nonnull %9) #21
  %13 = load i32, ptr @git_gettext_enabled, align 4, !tbaa !4
  %.not4.i12 = icmp eq i32 %13, 0
  br i1 %.not4.i12, label %_.exit14, label %14

14:                                               ; preds = %_.exit
  %15 = call ptr @dcgettext(ptr noundef null, ptr noundef nonnull @.str.226, i32 noundef 5) #21
  br label %_.exit14

_.exit14:                                         ; preds = %_.exit, %14
  %.0.i13 = phi ptr [ %15, %14 ], [ @.str.226, %_.exit ]
  call void (ptr, ptr, ...) @strbuf_addf(ptr noundef nonnull %2, ptr noundef %.0.i13, ptr noundef nonnull %9) #21
  %16 = call i32 @advice_enabled(i32 noundef 4) #21
  %.not9 = icmp eq i32 %16, 0
  br i1 %.not9, label %27, label %17

17:                                               ; preds = %_.exit14
  %.val = load ptr, ptr %0, align 8, !tbaa !23
  %18 = call ptr (ptr, ...) @mkpath(ptr noundef nonnull @.str.83, ptr noundef %.val, ptr noundef nonnull @.str.188) #21
  %19 = call i32 @is_empty_or_missing_file(ptr noundef %18) #21
  %.not10 = icmp eq i32 %19, 0
  br i1 %.not10, label %27, label %20

20:                                               ; preds = %17
  %21 = load ptr, ptr @the_repository, align 8, !tbaa !21
  %22 = call i32 @repo_index_has_changes(ptr noundef %21, ptr noundef null, ptr noundef null) #21
  %.not11 = icmp eq i32 %22, 0
  br i1 %.not11, label %23, label %27

23:                                               ; preds = %20
  %24 = load i32, ptr @git_gettext_enabled, align 4, !tbaa !4
  %.not4.i15 = icmp eq i32 %24, 0
  br i1 %.not4.i15, label %_.exit17, label %25

25:                                               ; preds = %23
  %26 = call ptr @dcgettext(ptr noundef null, ptr noundef nonnull @.str.227, i32 noundef 5) #21
  br label %_.exit17

_.exit17:                                         ; preds = %23, %25
  %.0.i16 = phi ptr [ %26, %25 ], [ @.str.227, %23 ]
  call void (ptr, ptr, ...) @strbuf_addf(ptr noundef nonnull %2, ptr noundef %.0.i16, ptr noundef nonnull %9) #21
  br label %27

27:                                               ; preds = %_.exit17, %20, %17, %_.exit14
  %28 = load i32, ptr @git_gettext_enabled, align 4, !tbaa !4
  %.not4.i18 = icmp eq i32 %28, 0
  br i1 %.not4.i18, label %_.exit20, label %29

29:                                               ; preds = %27
  %30 = call ptr @dcgettext(ptr noundef null, ptr noundef nonnull @.str.228, i32 noundef 5) #21
  br label %_.exit20

_.exit20:                                         ; preds = %27, %29
  %.0.i19 = phi ptr [ %30, %29 ], [ @.str.228, %27 ]
  call void (ptr, ptr, ...) @strbuf_addf(ptr noundef nonnull %2, ptr noundef %.0.i19, ptr noundef nonnull %9) #21
  %31 = getelementptr inbounds nuw i8, ptr %2, i64 16
  %32 = load ptr, ptr %31, align 8, !tbaa !51
  call void (i32, ptr, ...) @advise_if_enabled(i32 noundef 15, ptr noundef nonnull @.str.183, ptr noundef %32) #21
  call void @strbuf_release(ptr noundef nonnull %2) #21
  call void @llvm.lifetime.end.p0(i64 24, ptr nonnull %2) #21
  br label %33

33:                                               ; preds = %_.exit20, %5
  %34 = call i32 @common_exit(ptr noundef nonnull @.str.85, i32 noundef 1179, i32 noundef 128) #21
  call void @exit(i32 noundef %34) #22
  unreachable
}